target datalayout = "e-m:e-p270:32:32-p271:32:32-p272:64:64-i64:64-i128:128-f80:128-n8:16:32:64-S128"
target triple = "x86_64-pc-linux-gnu"

%"struct.ozz::animation::BlendingJob::Layer" = type { float, %"struct.ozz::span", %"struct.ozz::span.0" }
%"struct.ozz::span" = type { ptr, i64 }
%"struct.ozz::span.0" = type { ptr, i64 }
%"struct.ozz::animation::BlendingJob" = type { float, %"struct.ozz::span.1", %"struct.ozz::span.1", %"struct.ozz::span", %"struct.ozz::span.2" }
%"struct.ozz::span.1" = type { ptr, i64 }
%"struct.ozz::span.2" = type { ptr, i64 }

; Function Attrs: mustprogress nounwind uwtable
define linkonce_odr dso_local noundef i64 @_ZNK3ozz4spanIKDv4_fE4sizeEv(ptr noundef nonnull align 8 dereferenceable(16) %0) #1 comdat align 2 {
  %2 = alloca ptr, align 8
  store ptr %0, ptr %2, align 8
  %3 = load ptr, ptr %2, align 8
  %4 = getelementptr inbounds %"struct.ozz::span.0", ptr %3, i32 0, i32 1
  %5 = load i64, ptr %4, align 8
  ret i64 %5
}

; Function Attrs: mustprogress nounwind uwtable
define linkonce_odr dso_local noundef zeroext i1 @_ZNK3ozz4spanIKDv4_fE5emptyEv(ptr noundef nonnull align 8 dereferenceable(16) %0) #1 comdat align 2 {
  %2 = alloca ptr, align 8
  store ptr %0, ptr %2, align 8
  %3 = load ptr, ptr %2, align 8
  %4 = getelementptr inbounds %"struct.ozz::span.0", ptr %3, i32 0, i32 1
  %5 = load i64, ptr %4, align 8
  %6 = icmp eq i64 %5, 0
  ret i1 %6
}

; Function Attrs: mustprogress uwtable
define internal noundef zeroext i1 @_ZN3ozz9animation12_GLOBAL__N_113ValidateLayerERKNS0_11BlendingJob5LayerEm(ptr noundef nonnull align 8 dereferenceable(40) %0, i64 noundef %1) #0 {
  %3 = alloca ptr, align 8
  %4 = alloca i64, align 8
  %5 = alloca i8, align 1
  store ptr %0, ptr %3, align 8
  store i64 %1, ptr %4, align 8
  store i8 1, ptr %5, align 1
  %6 = load ptr, ptr %3, align 8
  %7 = getelementptr inbounds %"struct.ozz::animation::BlendingJob::Layer", ptr %6, i32 0, i32 1
  %8 = call noundef i64 @_ZNK3ozz4spanIKNS_4math12SoaTransformEE4sizeEv(ptr noundef nonnull align 8 dereferenceable(16) %7)
  %9 = load i64, ptr %4, align 8
  %10 = icmp uge i64 %8, %9
  %11 = zext i1 %10 to i32
  %12 = load i8, ptr %5, align 1
  %13 = trunc i8 %12 to i1
  %14 = zext i1 %13 to i32
  %15 = and i32 %14, %11
  %16 = icmp ne i32 %15, 0
  %17 = zext i1 %16 to i8
  store i8 %17, ptr %5, align 1
  %18 = load ptr, ptr %3, align 8
  %19 = getelementptr inbounds %"struct.ozz::animation::BlendingJob::Layer", ptr %18, i32 0, i32 2
  %20 = call noundef zeroext i1 @_ZNK3ozz4spanIKDv4_fE5emptyEv(ptr noundef nonnull align 8 dereferenceable(16) %19)
  br i1 %20, label %34, label %21

21:                                               ; preds = %2
  %22 = load ptr, ptr %3, align 8
  %23 = getelementptr inbounds %"struct.ozz::animation::BlendingJob::Layer", ptr %22, i32 0, i32 2
  %24 = call noundef i64 @_ZNK3ozz4spanIKDv4_fE4sizeEv(ptr noundef nonnull align 8 dereferenceable(16) %23)
  %25 = load i64, ptr %4, align 8
  %26 = icmp uge i64 %24, %25
  %27 = zext i1 %26 to i32
  %28 = load i8, ptr %5, align 1
  %29 = trunc i8 %28 to i1
  %30 = zext i1 %29 to i32
  %31 = and i32 %30, %27
  %32 = icmp ne i32 %31, 0
  %33 = zext i1 %32 to i8
  store i8 %33, ptr %5, align 1
  br label %45

34:                                               ; preds = %2
  %35 = load ptr, ptr %3, align 8
  %36 = getelementptr inbounds %"struct.ozz::animation::BlendingJob::Layer", ptr %35, i32 0, i32 2
  %37 = call noundef zeroext i1 @_ZNK3ozz4spanIKDv4_fE5emptyEv(ptr noundef nonnull align 8 dereferenceable(16) %36)
  %38 = zext i1 %37 to i32
  %39 = load i8, ptr %5, align 1
  %40 = trunc i8 %39 to i1
  %41 = zext i1 %40 to i32
  %42 = and i32 %41, %38
  %43 = icmp ne i32 %42, 0
  %44 = zext i1 %43 to i8
  store i8 %44, ptr %5, align 1
  br label %45

45:                                               ; preds = %34, %21
  %46 = load i8, ptr %5, align 1
  %47 = trunc i8 %46 to i1
  ret i1 %47
}

; Function Attrs: mustprogress nounwind uwtable
define linkonce_odr dso_local noundef ptr @_ZNK3ozz4spanIKNS_9animation11BlendingJob5LayerEE3endEv(ptr noundef nonnull align 8 dereferenceable(16) %0) #1 comdat align 2 {
  %2 = alloca ptr, align 8
  store ptr %0, ptr %2, align 8
  %3 = load ptr, ptr %2, align 8
  %4 = getelementptr inbounds %"struct.ozz::span.1", ptr %3, i32 0, i32 0
  %5 = load ptr, ptr %4, align 8
  %6 = getelementptr inbounds %"struct.ozz::span.1", ptr %3, i32 0, i32 1
  %7 = load i64, ptr %6, align 8
  %8 = getelementptr inbounds %"struct.ozz::animation::BlendingJob::Layer", ptr %5, i64 %7
  ret ptr %8
}

; Function Attrs: mustprogress nounwind uwtable
define linkonce_odr dso_local noundef ptr @_ZNK3ozz4spanIKNS_9animation11BlendingJob5LayerEE5beginEv(ptr noundef nonnull align 8 dereferenceable(16) %0) #1 comdat align 2 {
  %2 = alloca ptr, align 8
  store ptr %0, ptr %2, align 8
  %3 = load ptr, ptr %2, align 8
  %4 = getelementptr inbounds %"struct.ozz::span.1", ptr %3, i32 0, i32 0
  %5 = load ptr, ptr %4, align 8
  ret ptr %5
}

; Function Attrs: mustprogress nounwind uwtable
define linkonce_odr dso_local noundef i64 @_ZNK3ozz4spanINS_4math12SoaTransformEE4sizeEv(ptr noundef nonnull align 8 dereferenceable(16) %0) #1 comdat align 2 {
  %2 = alloca ptr, align 8
  store ptr %0, ptr %2, align 8
  %3 = load ptr, ptr %2, align 8
  %4 = getelementptr inbounds %"struct.ozz::span.2", ptr %3, i32 0, i32 1
  %5 = load i64, ptr %4, align 8
  ret i64 %5
}

; Function Attrs: mustprogress nounwind uwtable
define linkonce_odr dso_local noundef i64 @_ZNK3ozz4spanIKNS_4math12SoaTransformEE4sizeEv(ptr noundef nonnull align 8 dereferenceable(16) %0) #1 comdat align 2 {
  %2 = alloca ptr, align 8
  store ptr %0, ptr %2, align 8
  %3 = load ptr, ptr %2, align 8
  %4 = getelementptr inbounds %"struct.ozz::span", ptr %3, i32 0, i32 1
  %5 = load i64, ptr %4, align 8
  ret i64 %5
}

; Function Attrs: mustprogress nounwind uwtable
define linkonce_odr dso_local noundef zeroext i1 @_ZNK3ozz4spanINS_4math12SoaTransformEE5emptyEv(ptr noundef nonnull align 8 dereferenceable(16) %0) #1 comdat align 2 {
  %2 = alloca ptr, align 8
  store ptr %0, ptr %2, align 8
  %3 = load ptr, ptr %2, align 8
  %4 = getelementptr inbounds %"struct.ozz::span.2", ptr %3, i32 0, i32 1
  %5 = load i64, ptr %4, align 8
  %6 = icmp eq i64 %5, 0
  ret i1 %6
}

; Function Attrs: mustprogress nounwind uwtable
define linkonce_odr dso_local noundef zeroext i1 @_ZNK3ozz4spanIKNS_4math12SoaTransformEE5emptyEv(ptr noundef nonnull align 8 dereferenceable(16) %0) #1 comdat align 2 {
  %2 = alloca ptr, align 8
  store ptr %0, ptr %2, align 8
  %3 = load ptr, ptr %2, align 8
  %4 = getelementptr inbounds %"struct.ozz::span", ptr %3, i32 0, i32 1
  %5 = load i64, ptr %4, align 8
  %6 = icmp eq i64 %5, 0
  ret i1 %6
}

; Function Attrs: mustprogress uwtable
define dso_local noundef zeroext i1 @_ZNK3ozz9animation11BlendingJob8ValidateEv(ptr noundef nonnull align 8 dereferenceable(72) %0) #0 align 2 {
  %2 = alloca ptr, align 8
  %3 = alloca i8, align 1
  %4 = alloca i64, align 8
  %5 = alloca ptr, align 8
  %6 = alloca ptr, align 8
  %7 = alloca ptr, align 8
  %8 = alloca ptr, align 8
  %9 = alloca ptr, align 8
  %10 = alloca ptr, align 8
  %11 = alloca ptr, align 8
  %12 = alloca ptr, align 8
  store ptr %0, ptr %2, align 8
  %13 = load ptr, ptr %2, align 8
  store i8 1, ptr %3, align 1
  %14 = getelementptr inbounds %"struct.ozz::animation::BlendingJob", ptr %13, i32 0, i32 0
  %15 = load float, ptr %14, align 8
  %16 = fcmp ogt float %15, 0.000000e+00
  %17 = zext i1 %16 to i32
  %18 = load i8, ptr %3, align 1
  %19 = trunc i8 %18 to i1
  %20 = zext i1 %19 to i32
  %21 = and i32 %20, %17
  %22 = icmp ne i32 %21, 0
  %23 = zext i1 %22 to i8
  store i8 %23, ptr %3, align 1
  %24 = getelementptr inbounds %"struct.ozz::animation::BlendingJob", ptr %13, i32 0, i32 3
  %25 = call noundef zeroext i1 @_ZNK3ozz4spanIKNS_4math12SoaTransformEE5emptyEv(ptr noundef nonnull align 8 dereferenceable(16) %24)
  %26 = xor i1 %25, true
  %27 = zext i1 %26 to i32
  %28 = load i8, ptr %3, align 1
  %29 = trunc i8 %28 to i1
  %30 = zext i1 %29 to i32
  %31 = and i32 %30, %27
  %32 = icmp ne i32 %31, 0
  %33 = zext i1 %32 to i8
  store i8 %33, ptr %3, align 1
  %34 = getelementptr inbounds %"struct.ozz::animation::BlendingJob", ptr %13, i32 0, i32 4
  %35 = call noundef zeroext i1 @_ZNK3ozz4spanINS_4math12SoaTransformEE5emptyEv(ptr noundef nonnull align 8 dereferenceable(16) %34)
  %36 = xor i1 %35, true
  %37 = zext i1 %36 to i32
  %38 = load i8, ptr %3, align 1
  %39 = trunc i8 %38 to i1
  %40 = zext i1 %39 to i32
  %41 = and i32 %40, %37
  %42 = icmp ne i32 %41, 0
  %43 = zext i1 %42 to i8
  store i8 %43, ptr %3, align 1
  %44 = getelementptr inbounds %"struct.ozz::animation::BlendingJob", ptr %13, i32 0, i32 3
  %45 = call noundef i64 @_ZNK3ozz4spanIKNS_4math12SoaTransformEE4sizeEv(ptr noundef nonnull align 8 dereferenceable(16) %44)
  store i64 %45, ptr %4, align 8
  %46 = getelementptr inbounds %"struct.ozz::animation::BlendingJob", ptr %13, i32 0, i32 4
  %47 = call noundef i64 @_ZNK3ozz4spanINS_4math12SoaTransformEE4sizeEv(ptr noundef nonnull align 8 dereferenceable(16) %46)
  %48 = load i64, ptr %4, align 8
  %49 = icmp uge i64 %47, %48
  %50 = zext i1 %49 to i32
  %51 = load i8, ptr %3, align 1
  %52 = trunc i8 %51 to i1
  %53 = zext i1 %52 to i32
  %54 = and i32 %53, %50
  %55 = icmp ne i32 %54, 0
  %56 = zext i1 %55 to i8
  store i8 %56, ptr %3, align 1
  %57 = getelementptr inbounds %"struct.ozz::animation::BlendingJob", ptr %13, i32 0, i32 1
  store ptr %57, ptr %5, align 8
  %58 = load ptr, ptr %5, align 8
  %59 = call noundef ptr @_ZNK3ozz4spanIKNS_9animation11BlendingJob5LayerEE5beginEv(ptr noundef nonnull align 8 dereferenceable(16) %58)
  store ptr %59, ptr %6, align 8
  %60 = load ptr, ptr %5, align 8
  %61 = call noundef ptr @_ZNK3ozz4spanIKNS_9animation11BlendingJob5LayerEE3endEv(ptr noundef nonnull align 8 dereferenceable(16) %60)
  store ptr %61, ptr %7, align 8
  br label %62

62:                                               ; preds = %78, %1
  %63 = load ptr, ptr %6, align 8
  %64 = load ptr, ptr %7, align 8
  %65 = icmp ne ptr %63, %64
  br i1 %65, label %66, label %81

66:                                               ; preds = %62
  %67 = load ptr, ptr %6, align 8
  store ptr %67, ptr %8, align 8
  %68 = load ptr, ptr %8, align 8
  %69 = load i64, ptr %4, align 8
  %70 = call noundef zeroext i1 @_ZN3ozz9animation12_GLOBAL__N_113ValidateLayerERKNS0_11BlendingJob5LayerEm(ptr noundef nonnull align 8 dereferenceable(40) %68, i64 noundef %69)
  %71 = zext i1 %70 to i32
  %72 = load i8, ptr %3, align 1
  %73 = trunc i8 %72 to i1
  %74 = zext i1 %73 to i32
  %75 = and i32 %74, %71
  %76 = icmp ne i32 %75, 0
  %77 = zext i1 %76 to i8
  store i8 %77, ptr %3, align 1
  br label %78

78:                                               ; preds = %66
  %79 = load ptr, ptr %6, align 8
  %80 = getelementptr inbounds %"struct.ozz::animation::BlendingJob::Layer", ptr %79, i32 1
  store ptr %80, ptr %6, align 8
  br label %62

81:                                               ; preds = %62
  %82 = getelementptr inbounds %"struct.ozz::animation::BlendingJob", ptr %13, i32 0, i32 2
  store ptr %82, ptr %9, align 8
  %83 = load ptr, ptr %9, align 8
  %84 = call noundef ptr @_ZNK3ozz4spanIKNS_9animation11BlendingJob5LayerEE5beginEv(ptr noundef nonnull align 8 dereferenceable(16) %83)
  store ptr %84, ptr %10, align 8
  %85 = load ptr, ptr %9, align 8
  %86 = call noundef ptr @_ZNK3ozz4spanIKNS_9animation11BlendingJob5LayerEE3endEv(ptr noundef nonnull align 8 dereferenceable(16) %85)
  store ptr %86, ptr %11, align 8
  br label %87

87:                                               ; preds = %103, %81
  %88 = load ptr, ptr %10, align 8
  %89 = load ptr, ptr %11, align 8
  %90 = icmp ne ptr %88, %89
  br i1 %90, label %91, label %106

91:                                               ; preds = %87
  %92 = load ptr, ptr %10, align 8
  store ptr %92, ptr %12, align 8
  %93 = load ptr, ptr %12, align 8
  %94 = load i64, ptr %4, align 8
  %95 = call noundef zeroext i1 @_ZN3ozz9animation12_GLOBAL__N_113ValidateLayerERKNS0_11BlendingJob5LayerEm(ptr noundef nonnull align 8 dereferenceable(40) %93, i64 noundef %94)
  %96 = zext i1 %95 to i32
  %97 = load i8, ptr %3, align 1
  %98 = trunc i8 %97 to i1
  %99 = zext i1 %98 to i32
  %100 = and i32 %99, %96
  %101 = icmp ne i32 %100, 0
  %102 = zext i1 %101 to i8
  store i8 %102, ptr %3, align 1
  br label %103

103:                                              ; preds = %91
  %104 = load ptr, ptr %10, align 8
  %105 = getelementptr inbounds %"struct.ozz::animation::BlendingJob::Layer", ptr %104, i32 1
  store ptr %105, ptr %10, align 8
  br label %87

106:                                              ; preds = %87
  %107 = load i8, ptr %3, align 1
  %108 = trunc i8 %107 to i1
  ret i1 %108
}