; Function Attrs: mustprogress nofree norecurse nosync nounwind willreturn memory(read, inaccessiblemem: none) uwtable
define dso_local noundef zeroext i1 @_ZNK3ozz9animation11BlendingJob8ValidateEv(ptr nocapture noundef nonnull readonly align 8 dereferenceable(72) %0) local_unnamed_addr #1 align 2 {
  %2 = load float, ptr %0, align 8
  %3 = fcmp ogt float %2, 0.000000e+00
  %4 = getelementptr inbounds i8, ptr %0, i64 48
  %5 = load i64, ptr %4, align 8
  %6 = icmp ne i64 %5, 0
  %7 = getelementptr inbounds i8, ptr %0, i64 64
  %8 = load i64, ptr %7, align 8
  %9 = icmp ne i64 %8, 0
  %.not33 = and i1 %6, %9
  %10 = and i1 %3, %.not33
  %11 = icmp uge i64 %8, %5
  %12 = and i1 %11, %10
  %13 = getelementptr inbounds i8, ptr %0, i64 8
  %14 = load ptr, ptr %13, align 8
  %15 = getelementptr inbounds i8, ptr %0, i64 16
  %16 = load i64, ptr %15, align 8
  %17 = getelementptr inbounds %"struct.ozz::animation::BlendingJob::Layer", ptr %14, i64 %16
  %.not34 = icmp eq i64 %16, 0
  br i1 %.not34, label %._crit_edge, label %.lr.ph

.lr.ph:                                           ; preds = %1, %.lr.ph
  %.0.in36 = phi i1 [ %23, %.lr.ph ], [ %12, %1 ]
  %.02435 = phi ptr [ %24, %.lr.ph ], [ %14, %1 ]
  %18 = getelementptr i8, ptr %.02435, i64 16
  %.024.val = load i64, ptr %18, align 8
  %19 = getelementptr i8, ptr %.02435, i64 32
  %.024.val27 = load i64, ptr %19, align 8
  %20 = icmp eq i64 %.024.val27, 0
  %21 = icmp uge i64 %.024.val27, %5
  %spec.select.i = or i1 %20, %21
  %22 = icmp uge i64 %.024.val, %5
  %.0.in.i = and i1 %22, %spec.select.i
  %23 = and i1 %.0.in36, %.0.in.i
  %24 = getelementptr inbounds i8, ptr %.02435, i64 40
  %.not = icmp eq ptr %24, %17
  br i1 %.not, label %._crit_edge, label %.lr.ph

._crit_edge:                                      ; preds = %.lr.ph, %1
  %.0.in.lcssa = phi i1 [ %12, %1 ], [ %23, %.lr.ph ]
  %25 = getelementptr inbounds i8, ptr %0, i64 24
  %26 = load ptr, ptr %25, align 8
  %27 = getelementptr inbounds i8, ptr %0, i64 32
  %28 = load i64, ptr %27, align 8
  %29 = getelementptr inbounds %"struct.ozz::animation::BlendingJob::Layer", ptr %26, i64 %28
  %.not2637 = icmp eq i64 %28, 0
  br i1 %.not2637, label %._crit_edge42, label %.lr.ph41

.lr.ph41:                                         ; preds = %._crit_edge, %.lr.ph41
  %.139 = phi i1 [ %35, %.lr.ph41 ], [ %.0.in.lcssa, %._crit_edge ]
  %.02538 = phi ptr [ %36, %.lr.ph41 ], [ %26, %._crit_edge ]
  %30 = getelementptr i8, ptr %.02538, i64 16
  %.025.val = load i64, ptr %30, align 8
  %31 = getelementptr i8, ptr %.02538, i64 32
  %.025.val28 = load i64, ptr %31, align 8
  %32 = icmp eq i64 %.025.val28, 0
  %33 = icmp uge i64 %.025.val28, %5
  %spec.select.i29 = or i1 %32, %33
  %34 = icmp uge i64 %.025.val, %5
  %.0.in.i30 = and i1 %34, %spec.select.i29
  %35 = and i1 %.139, %.0.in.i30
  %36 = getelementptr inbounds i8, ptr %.02538, i64 40
  %.not26 = icmp eq ptr %36, %29
  br i1 %.not26, label %._crit_edge42, label %.lr.ph41

._crit_edge42:                                    ; preds = %.lr.ph41, %._crit_edge
  %.1.lcssa = phi i1 [ %.0.in.lcssa, %._crit_edge ], [ %35, %.lr.ph41 ]
  ret i1 %.1.lcssa
}